target datalayout = "e-m:e-p270:32:32-p271:32:32-p272:64:64-i64:64-i128:128-f80:128-n8:16:32:64-S128"
target triple = "x86_64-pc-linux-gnu"

%"class.__gnu_cxx::__normal_iterator.45" = type { ptr }
%class.anon.232 = type { ptr }
%"struct.__gnu_cxx::__ops::_Iter_comp_iter.237" = type { %class.anon.232 }

; Function Attrs: mustprogress nounwind uwtable
define linkonce_odr void @_ZN9__gnu_cxx17__normal_iteratorIPmSt6vectorImSaImEEEC2ERKS1_(ptr noundef nonnull align 8 dereferenceable(8) %0, ptr noundef nonnull align 8 dereferenceable(8) %1) unnamed_addr #6 comdat align 2 {
  %3 = alloca ptr, align 8
  %4 = alloca ptr, align 8
  store ptr %0, ptr %3, align 8, !tbaa !263
  store ptr %1, ptr %4, align 8, !tbaa !273
  %5 = load ptr, ptr %3, align 8
  %6 = getelementptr inbounds nuw %"class.__gnu_cxx::__normal_iterator.45", ptr %5, i32 0, i32 0
  %7 = load ptr, ptr %4, align 8, !tbaa !273
  %8 = load ptr, ptr %7, align 8, !tbaa !38
  store ptr %8, ptr %6, align 8, !tbaa !267
  ret void
}

; Function Attrs: mustprogress nounwind uwtable
define linkonce_odr noundef nonnull align 8 dereferenceable(8) ptr @_ZNK9__gnu_cxx17__normal_iteratorIPmSt6vectorImSaImEEE4baseEv(ptr noundef nonnull align 8 dereferenceable(8) %0) #6 comdat align 2 {
  %2 = alloca ptr, align 8
  store ptr %0, ptr %2, align 8, !tbaa !263
  %3 = load ptr, ptr %2, align 8
  %4 = getelementptr inbounds nuw %"class.__gnu_cxx::__normal_iterator.45", ptr %3, i32 0, i32 0
  ret ptr %4
}

; Function Attrs: mustprogress nounwind uwtable
define linkonce_odr ptr @_ZNK9__gnu_cxx17__normal_iteratorIPmSt6vectorImSaImEEEplEl(ptr noundef nonnull align 8 dereferenceable(8) %0, i64 noundef %1) #6 comdat align 2 {
  %3 = alloca %"class.__gnu_cxx::__normal_iterator.45", align 8
  %4 = alloca ptr, align 8
  %5 = alloca i64, align 8
  %6 = alloca ptr, align 8
  store ptr %0, ptr %4, align 8, !tbaa !263
  store i64 %1, ptr %5, align 8, !tbaa !14
  %7 = load ptr, ptr %4, align 8
  call void @llvm.lifetime.start.p0(i64 8, ptr %6) #3
  %8 = getelementptr inbounds nuw %"class.__gnu_cxx::__normal_iterator.45", ptr %7, i32 0, i32 0
  %9 = load ptr, ptr %8, align 8, !tbaa !267
  %10 = load i64, ptr %5, align 8, !tbaa !14
  %11 = getelementptr inbounds i64, ptr %9, i64 %10
  store ptr %11, ptr %6, align 8, !tbaa !38
  call void @_ZN9__gnu_cxx17__normal_iteratorIPmSt6vectorImSaImEEEC2ERKS1_(ptr noundef nonnull align 8 dereferenceable(8) %3, ptr noundef nonnull align 8 dereferenceable(8) %6) #3
  call void @llvm.lifetime.end.p0(i64 8, ptr %6) #3
  %12 = getelementptr inbounds nuw %"class.__gnu_cxx::__normal_iterator.45", ptr %3, i32 0, i32 0
  %13 = load ptr, ptr %12, align 8
  ret ptr %13
}

; Function Attrs: inlinehint mustprogress nounwind uwtable
define linkonce_odr noundef i64 @_ZN9__gnu_cxxmiIPmSt6vectorImSaImEEEENS_17__normal_iteratorIT_T0_E15difference_typeERKS8_SB_(ptr noundef nonnull align 8 dereferenceable(8) %0, ptr noundef nonnull align 8 dereferenceable(8) %1) #12 comdat {
  %3 = alloca ptr, align 8
  %4 = alloca ptr, align 8
  store ptr %0, ptr %3, align 8, !tbaa !263
  store ptr %1, ptr %4, align 8, !tbaa !263
  %5 = load ptr, ptr %3, align 8, !tbaa !263
  %6 = call noundef nonnull align 8 dereferenceable(8) ptr @_ZNK9__gnu_cxx17__normal_iteratorIPmSt6vectorImSaImEEE4baseEv(ptr noundef nonnull align 8 dereferenceable(8) %5) #3
  %7 = load ptr, ptr %6, align 8, !tbaa !38
  %8 = load ptr, ptr %4, align 8, !tbaa !263
  %9 = call noundef nonnull align 8 dereferenceable(8) ptr @_ZNK9__gnu_cxx17__normal_iteratorIPmSt6vectorImSaImEEE4baseEv(ptr noundef nonnull align 8 dereferenceable(8) %8) #3
  %10 = load ptr, ptr %9, align 8, !tbaa !38
  %11 = ptrtoint ptr %7 to i64
  %12 = ptrtoint ptr %10 to i64
  %13 = sub i64 %11, %12
  %14 = sdiv exact i64 %13, 8
  ret i64 %14
}

; Function Attrs: mustprogress uwtable
define internal void @"_ZSt22__stable_sort_adaptiveIN9__gnu_cxx17__normal_iteratorIPmSt6vectorImSaImEEEES2_lNS0_5__ops15_Iter_comp_iterIZN7xgboost6common16WeightedQuantileINSA_18IndexTransformIterIZZZNS9_3obj6detail18UpdateTreeLeafHostEPKNS9_7ContextERKS3_IiSaIiEEiRKNS9_8MetaInfoEfRKNS9_16HostDeviceVectorIfEEfPNS9_7RegTreeEENK3$_1clEvENKUlmE_clEmEUlmE_EENSC_IZZZNSE_18UpdateTreeLeafHostESH_SL_iSO_fSS_fSU_ENKSV_clEvENKSW_clEmEUlmE0_EEfEET1_SH_dT_S12_T0_EUlmmE_EEEvS12_S12_S13_S11_T2_"(ptr %0, ptr %1, ptr noundef %2, i64 noundef %3, ptr %4) #4 {
  %6 = alloca %"class.__gnu_cxx::__normal_iterator.45", align 8
  %7 = alloca %"class.__gnu_cxx::__normal_iterator.45", align 8
  %8 = alloca %"struct.__gnu_cxx::__ops::_Iter_comp_iter.237", align 8
  %9 = alloca ptr, align 8
  %10 = alloca i64, align 8
  %11 = alloca i64, align 8
  %12 = alloca %"class.__gnu_cxx::__normal_iterator.45", align 8
  %13 = alloca %"class.__gnu_cxx::__normal_iterator.45", align 8
  %14 = alloca %"class.__gnu_cxx::__normal_iterator.45", align 8
  %15 = alloca %"struct.__gnu_cxx::__ops::_Iter_comp_iter.237", align 8
  %16 = alloca %"class.__gnu_cxx::__normal_iterator.45", align 8
  %17 = alloca %"class.__gnu_cxx::__normal_iterator.45", align 8
  %18 = alloca %"struct.__gnu_cxx::__ops::_Iter_comp_iter.237", align 8
  %19 = alloca %"class.__gnu_cxx::__normal_iterator.45", align 8
  %20 = alloca %"class.__gnu_cxx::__normal_iterator.45", align 8
  %21 = alloca %"struct.__gnu_cxx::__ops::_Iter_comp_iter.237", align 8
  %22 = alloca %"class.__gnu_cxx::__normal_iterator.45", align 8
  %23 = alloca %"class.__gnu_cxx::__normal_iterator.45", align 8
  %24 = alloca %"struct.__gnu_cxx::__ops::_Iter_comp_iter.237", align 8
  %25 = alloca %"class.__gnu_cxx::__normal_iterator.45", align 8
  %26 = alloca %"class.__gnu_cxx::__normal_iterator.45", align 8
  %27 = alloca %"class.__gnu_cxx::__normal_iterator.45", align 8
  %28 = alloca %"struct.__gnu_cxx::__ops::_Iter_comp_iter.237", align 8
  %29 = getelementptr inbounds nuw %"class.__gnu_cxx::__normal_iterator.45", ptr %6, i32 0, i32 0
  store ptr %0, ptr %29, align 8
  %30 = getelementptr inbounds nuw %"class.__gnu_cxx::__normal_iterator.45", ptr %7, i32 0, i32 0
  store ptr %1, ptr %30, align 8
  %31 = getelementptr inbounds nuw %"struct.__gnu_cxx::__ops::_Iter_comp_iter.237", ptr %8, i32 0, i32 0
  %32 = getelementptr inbounds nuw %class.anon.232, ptr %31, i32 0, i32 0
  store ptr %4, ptr %32, align 8
  store ptr %2, ptr %9, align 8, !tbaa !38
  store i64 %3, ptr %10, align 8, !tbaa !14
  call void @llvm.lifetime.start.p0(i64 8, ptr %11) #3
  %33 = call noundef i64 @_ZN9__gnu_cxxmiIPmSt6vectorImSaImEEEENS_17__normal_iteratorIT_T0_E15difference_typeERKS8_SB_(ptr noundef nonnull align 8 dereferenceable(8) %7, ptr noundef nonnull align 8 dereferenceable(8) %6) #3
  %34 = add nsw i64 %33, 1
  %35 = sdiv i64 %34, 2
  store i64 %35, ptr %11, align 8, !tbaa !14
  call void @llvm.lifetime.start.p0(i64 8, ptr %12) #3
  %36 = load i64, ptr %11, align 8, !tbaa !14
  %37 = call ptr @_ZNK9__gnu_cxx17__normal_iteratorIPmSt6vectorImSaImEEEplEl(ptr noundef nonnull align 8 dereferenceable(8) %6, i64 noundef %36) #3
  %38 = getelementptr inbounds nuw %"class.__gnu_cxx::__normal_iterator.45", ptr %12, i32 0, i32 0
  store ptr %37, ptr %38, align 8
  %39 = load i64, ptr %11, align 8, !tbaa !14
  %40 = load i64, ptr %10, align 8, !tbaa !14
  %41 = icmp sgt i64 %39, %40
  br i1 %41, label %42, label %61

42:                                               ; preds = %5
  call void @llvm.memcpy.p0.p0.i64(ptr align 8 %13, ptr align 8 %6, i64 8, i1 false), !tbaa.struct !65
  call void @llvm.memcpy.p0.p0.i64(ptr align 8 %14, ptr align 8 %12, i64 8, i1 false), !tbaa.struct !65
  %43 = load ptr, ptr %9, align 8, !tbaa !38
  %44 = load i64, ptr %10, align 8, !tbaa !14
  call void @llvm.memcpy.p0.p0.i64(ptr align 8 %15, ptr align 8 %8, i64 8, i1 false), !tbaa.struct !1057
  %45 = getelementptr inbounds nuw %"class.__gnu_cxx::__normal_iterator.45", ptr %13, i32 0, i32 0
  %46 = load ptr, ptr %45, align 8
  %47 = getelementptr inbounds nuw %"class.__gnu_cxx::__normal_iterator.45", ptr %14, i32 0, i32 0
  %48 = load ptr, ptr %47, align 8
  %49 = getelementptr inbounds nuw %"struct.__gnu_cxx::__ops::_Iter_comp_iter.237", ptr %15, i32 0, i32 0
  %50 = getelementptr inbounds nuw %class.anon.232, ptr %49, i32 0, i32 0
  %51 = load ptr, ptr %50, align 8
  call void @"_ZSt22__stable_sort_adaptiveIN9__gnu_cxx17__normal_iteratorIPmSt6vectorImSaImEEEES2_lNS0_5__ops15_Iter_comp_iterIZN7xgboost6common16WeightedQuantileINSA_18IndexTransformIterIZZZNS9_3obj6detail18UpdateTreeLeafHostEPKNS9_7ContextERKS3_IiSaIiEEiRKNS9_8MetaInfoEfRKNS9_16HostDeviceVectorIfEEfPNS9_7RegTreeEENK3$_1clEvENKUlmE_clEmEUlmE_EENSC_IZZZNSE_18UpdateTreeLeafHostESH_SL_iSO_fSS_fSU_ENKSV_clEvENKSW_clEmEUlmE0_EEfEET1_SH_dT_S12_T0_EUlmmE_EEEvS12_S12_S13_S11_T2_"(ptr %46, ptr %48, ptr noundef %43, i64 noundef %44, ptr %51)
  call void @llvm.memcpy.p0.p0.i64(ptr align 8 %16, ptr align 8 %12, i64 8, i1 false), !tbaa.struct !65
  call void @llvm.memcpy.p0.p0.i64(ptr align 8 %17, ptr align 8 %7, i64 8, i1 false), !tbaa.struct !65
  %52 = load ptr, ptr %9, align 8, !tbaa !38
  %53 = load i64, ptr %10, align 8, !tbaa !14
  call void @llvm.memcpy.p0.p0.i64(ptr align 8 %18, ptr align 8 %8, i64 8, i1 false), !tbaa.struct !1057
  %54 = getelementptr inbounds nuw %"class.__gnu_cxx::__normal_iterator.45", ptr %16, i32 0, i32 0
  %55 = load ptr, ptr %54, align 8
  %56 = getelementptr inbounds nuw %"class.__gnu_cxx::__normal_iterator.45", ptr %17, i32 0, i32 0
  %57 = load ptr, ptr %56, align 8
  %58 = getelementptr inbounds nuw %"struct.__gnu_cxx::__ops::_Iter_comp_iter.237", ptr %18, i32 0, i32 0
  %59 = getelementptr inbounds nuw %class.anon.232, ptr %58, i32 0, i32 0
  %60 = load ptr, ptr %59, align 8
  call void @"_ZSt22__stable_sort_adaptiveIN9__gnu_cxx17__normal_iteratorIPmSt6vectorImSaImEEEES2_lNS0_5__ops15_Iter_comp_iterIZN7xgboost6common16WeightedQuantileINSA_18IndexTransformIterIZZZNS9_3obj6detail18UpdateTreeLeafHostEPKNS9_7ContextERKS3_IiSaIiEEiRKNS9_8MetaInfoEfRKNS9_16HostDeviceVectorIfEEfPNS9_7RegTreeEENK3$_1clEvENKUlmE_clEmEUlmE_EENSC_IZZZNSE_18UpdateTreeLeafHostESH_SL_iSO_fSS_fSU_ENKSV_clEvENKSW_clEmEUlmE0_EEfEET1_SH_dT_S12_T0_EUlmmE_EEEvS12_S12_S13_S11_T2_"(ptr %55, ptr %57, ptr noundef %52, i64 noundef %53, ptr %60)
  br label %78

61:                                               ; preds = %5
  call void @llvm.memcpy.p0.p0.i64(ptr align 8 %19, ptr align 8 %6, i64 8, i1 false), !tbaa.struct !65
  call void @llvm.memcpy.p0.p0.i64(ptr align 8 %20, ptr align 8 %12, i64 8, i1 false), !tbaa.struct !65
  %62 = load ptr, ptr %9, align 8, !tbaa !38
  call void @llvm.memcpy.p0.p0.i64(ptr align 8 %21, ptr align 8 %8, i64 8, i1 false), !tbaa.struct !1057
  %63 = getelementptr inbounds nuw %"class.__gnu_cxx::__normal_iterator.45", ptr %19, i32 0, i32 0
  %64 = load ptr, ptr %63, align 8
  %65 = getelementptr inbounds nuw %"class.__gnu_cxx::__normal_iterator.45", ptr %20, i32 0, i32 0
  %66 = load ptr, ptr %65, align 8
  %67 = getelementptr inbounds nuw %"struct.__gnu_cxx::__ops::_Iter_comp_iter.237", ptr %21, i32 0, i32 0
  %68 = getelementptr inbounds nuw %class.anon.232, ptr %67, i32 0, i32 0
  %69 = load ptr, ptr %68, align 8
  call void @"_ZSt24__merge_sort_with_bufferIN9__gnu_cxx17__normal_iteratorIPmSt6vectorImSaImEEEES2_NS0_5__ops15_Iter_comp_iterIZN7xgboost6common16WeightedQuantileINSA_18IndexTransformIterIZZZNS9_3obj6detail18UpdateTreeLeafHostEPKNS9_7ContextERKS3_IiSaIiEEiRKNS9_8MetaInfoEfRKNS9_16HostDeviceVectorIfEEfPNS9_7RegTreeEENK3$_1clEvENKUlmE_clEmEUlmE_EENSC_IZZZNSE_18UpdateTreeLeafHostESH_SL_iSO_fSS_fSU_ENKSV_clEvENKSW_clEmEUlmE0_EEfEET1_SH_dT_S12_T0_EUlmmE_EEEvS12_S12_S13_S11_"(ptr %64, ptr %66, ptr noundef %62, ptr %69)
  call void @llvm.memcpy.p0.p0.i64(ptr align 8 %22, ptr align 8 %12, i64 8, i1 false), !tbaa.struct !65
  call void @llvm.memcpy.p0.p0.i64(ptr align 8 %23, ptr align 8 %7, i64 8, i1 false), !tbaa.struct !65
  %70 = load ptr, ptr %9, align 8, !tbaa !38
  call void @llvm.memcpy.p0.p0.i64(ptr align 8 %24, ptr align 8 %8, i64 8, i1 false), !tbaa.struct !1057
  %71 = getelementptr inbounds nuw %"class.__gnu_cxx::__normal_iterator.45", ptr %22, i32 0, i32 0
  %72 = load ptr, ptr %71, align 8
  %73 = getelementptr inbounds nuw %"class.__gnu_cxx::__normal_iterator.45", ptr %23, i32 0, i32 0
  %74 = load ptr, ptr %73, align 8
  %75 = getelementptr inbounds nuw %"struct.__gnu_cxx::__ops::_Iter_comp_iter.237", ptr %24, i32 0, i32 0
  %76 = getelementptr inbounds nuw %class.anon.232, ptr %75, i32 0, i32 0
  %77 = load ptr, ptr %76, align 8
  call void @"_ZSt24__merge_sort_with_bufferIN9__gnu_cxx17__normal_iteratorIPmSt6vectorImSaImEEEES2_NS0_5__ops15_Iter_comp_iterIZN7xgboost6common16WeightedQuantileINSA_18IndexTransformIterIZZZNS9_3obj6detail18UpdateTreeLeafHostEPKNS9_7ContextERKS3_IiSaIiEEiRKNS9_8MetaInfoEfRKNS9_16HostDeviceVectorIfEEfPNS9_7RegTreeEENK3$_1clEvENKUlmE_clEmEUlmE_EENSC_IZZZNSE_18UpdateTreeLeafHostESH_SL_iSO_fSS_fSU_ENKSV_clEvENKSW_clEmEUlmE0_EEfEET1_SH_dT_S12_T0_EUlmmE_EEEvS12_S12_S13_S11_"(ptr %72, ptr %74, ptr noundef %70, ptr %77)
  br label %78

78:                                               ; preds = %61, %42
  call void @llvm.memcpy.p0.p0.i64(ptr align 8 %25, ptr align 8 %6, i64 8, i1 false), !tbaa.struct !65
  call void @llvm.memcpy.p0.p0.i64(ptr align 8 %26, ptr align 8 %12, i64 8, i1 false), !tbaa.struct !65
  call void @llvm.memcpy.p0.p0.i64(ptr align 8 %27, ptr align 8 %7, i64 8, i1 false), !tbaa.struct !65
  %79 = call noundef i64 @_ZN9__gnu_cxxmiIPmSt6vectorImSaImEEEENS_17__normal_iteratorIT_T0_E15difference_typeERKS8_SB_(ptr noundef nonnull align 8 dereferenceable(8) %12, ptr noundef nonnull align 8 dereferenceable(8) %6) #3
  %80 = call noundef i64 @_ZN9__gnu_cxxmiIPmSt6vectorImSaImEEEENS_17__normal_iteratorIT_T0_E15difference_typeERKS8_SB_(ptr noundef nonnull align 8 dereferenceable(8) %7, ptr noundef nonnull align 8 dereferenceable(8) %12) #3
  %81 = load ptr, ptr %9, align 8, !tbaa !38
  %82 = load i64, ptr %10, align 8, !tbaa !14
  call void @llvm.memcpy.p0.p0.i64(ptr align 8 %28, ptr align 8 %8, i64 8, i1 false), !tbaa.struct !1057
  %83 = getelementptr inbounds nuw %"class.__gnu_cxx::__normal_iterator.45", ptr %25, i32 0, i32 0
  %84 = load ptr, ptr %83, align 8
  %85 = getelementptr inbounds nuw %"class.__gnu_cxx::__normal_iterator.45", ptr %26, i32 0, i32 0
  %86 = load ptr, ptr %85, align 8
  %87 = getelementptr inbounds nuw %"class.__gnu_cxx::__normal_iterator.45", ptr %27, i32 0, i32 0
  %88 = load ptr, ptr %87, align 8
  %89 = getelementptr inbounds nuw %"struct.__gnu_cxx::__ops::_Iter_comp_iter.237", ptr %28, i32 0, i32 0
  %90 = getelementptr inbounds nuw %class.anon.232, ptr %89, i32 0, i32 0
  %91 = load ptr, ptr %90, align 8
  %92 = ptrtoint ptr %91 to i64
  call void @"_ZSt16__merge_adaptiveIN9__gnu_cxx17__normal_iteratorIPmSt6vectorImSaImEEEElS2_NS0_5__ops15_Iter_comp_iterIZN7xgboost6common16WeightedQuantileINSA_18IndexTransformIterIZZZNS9_3obj6detail18UpdateTreeLeafHostEPKNS9_7ContextERKS3_IiSaIiEEiRKNS9_8MetaInfoEfRKNS9_16HostDeviceVectorIfEEfPNS9_7RegTreeEENK3$_1clEvENKUlmE_clEmEUlmE_EENSC_IZZZNSE_18UpdateTreeLeafHostESH_SL_iSO_fSS_fSU_ENKSV_clEvENKSW_clEmEUlmE0_EEfEET1_SH_dT_S12_T0_EUlmmE_EEEvS12_S12_S12_S13_S13_S11_S13_T2_"(ptr %84, ptr %86, ptr %88, i64 noundef %79, i64 noundef %80, ptr noundef %81, i64 noundef %82, i64 %92)
  call void @llvm.lifetime.end.p0(i64 8, ptr %12) #3
  call void @llvm.lifetime.end.p0(i64 8, ptr %11) #3
  ret void
}