; Function Attrs: mustprogress uwtable
define internal fastcc void @"_ZSt22__stable_sort_adaptiveIN9__gnu_cxx17__normal_iteratorIPmSt6vectorImSaImEEEES2_lNS0_5__ops15_Iter_comp_iterIZN7xgboost6common16WeightedQuantileINSA_18IndexTransformIterIZZZNS9_3obj6detail18UpdateTreeLeafHostEPKNS9_7ContextERKS3_IiSaIiEEiRKNS9_8MetaInfoEfRKNS9_16HostDeviceVectorIfEEfPNS9_7RegTreeEENK3$_1clEvENKUlmE_clEmEUlmE_EENSC_IZZZNSE_18UpdateTreeLeafHostESH_SL_iSO_fSS_fSU_ENKSV_clEvENKSW_clEmEUlmE0_EEfEET1_SH_dT_S12_T0_EUlmmE_EEEvS12_S12_S13_S11_T2_"(ptr %0, ptr %1, ptr noundef %2, i64 noundef %3, ptr %4) unnamed_addr #3 {
  %6 = ptrtoint ptr %1 to i64
  %7 = ptrtoint ptr %0 to i64
  %8 = sub i64 %6, %7
  %9 = ashr exact i64 %8, 3
  %10 = add nsw i64 %9, 1
  %11 = sdiv i64 %10, 2
  %12 = getelementptr inbounds i64, ptr %0, i64 %11
  %13 = icmp sgt i64 %11, %3
  br i1 %13, label %14, label %15

14:                                               ; preds = %5
  tail call fastcc void @"_ZSt22__stable_sort_adaptiveIN9__gnu_cxx17__normal_iteratorIPmSt6vectorImSaImEEEES2_lNS0_5__ops15_Iter_comp_iterIZN7xgboost6common16WeightedQuantileINSA_18IndexTransformIterIZZZNS9_3obj6detail18UpdateTreeLeafHostEPKNS9_7ContextERKS3_IiSaIiEEiRKNS9_8MetaInfoEfRKNS9_16HostDeviceVectorIfEEfPNS9_7RegTreeEENK3$_1clEvENKUlmE_clEmEUlmE_EENSC_IZZZNSE_18UpdateTreeLeafHostESH_SL_iSO_fSS_fSU_ENKSV_clEvENKSW_clEmEUlmE0_EEfEET1_SH_dT_S12_T0_EUlmmE_EEEvS12_S12_S13_S11_T2_"(ptr %0, ptr %12, ptr noundef %2, i64 noundef %3, ptr %4)
  tail call fastcc void @"_ZSt22__stable_sort_adaptiveIN9__gnu_cxx17__normal_iteratorIPmSt6vectorImSaImEEEES2_lNS0_5__ops15_Iter_comp_iterIZN7xgboost6common16WeightedQuantileINSA_18IndexTransformIterIZZZNS9_3obj6detail18UpdateTreeLeafHostEPKNS9_7ContextERKS3_IiSaIiEEiRKNS9_8MetaInfoEfRKNS9_16HostDeviceVectorIfEEfPNS9_7RegTreeEENK3$_1clEvENKUlmE_clEmEUlmE_EENSC_IZZZNSE_18UpdateTreeLeafHostESH_SL_iSO_fSS_fSU_ENKSV_clEvENKSW_clEmEUlmE0_EEfEET1_SH_dT_S12_T0_EUlmmE_EEEvS12_S12_S13_S11_T2_"(ptr %12, ptr %1, ptr noundef %2, i64 noundef %3, ptr %4)
  br label %16

15:                                               ; preds = %5
  tail call fastcc void @"_ZSt24__merge_sort_with_bufferIN9__gnu_cxx17__normal_iteratorIPmSt6vectorImSaImEEEES2_NS0_5__ops15_Iter_comp_iterIZN7xgboost6common16WeightedQuantileINSA_18IndexTransformIterIZZZNS9_3obj6detail18UpdateTreeLeafHostEPKNS9_7ContextERKS3_IiSaIiEEiRKNS9_8MetaInfoEfRKNS9_16HostDeviceVectorIfEEfPNS9_7RegTreeEENK3$_1clEvENKUlmE_clEmEUlmE_EENSC_IZZZNSE_18UpdateTreeLeafHostESH_SL_iSO_fSS_fSU_ENKSV_clEvENKSW_clEmEUlmE0_EEfEET1_SH_dT_S12_T0_EUlmmE_EEEvS12_S12_S13_S11_"(ptr %0, ptr %12, ptr noundef %2, ptr %4)
  tail call fastcc void @"_ZSt24__merge_sort_with_bufferIN9__gnu_cxx17__normal_iteratorIPmSt6vectorImSaImEEEES2_NS0_5__ops15_Iter_comp_iterIZN7xgboost6common16WeightedQuantileINSA_18IndexTransformIterIZZZNS9_3obj6detail18UpdateTreeLeafHostEPKNS9_7ContextERKS3_IiSaIiEEiRKNS9_8MetaInfoEfRKNS9_16HostDeviceVectorIfEEfPNS9_7RegTreeEENK3$_1clEvENKUlmE_clEmEUlmE_EENSC_IZZZNSE_18UpdateTreeLeafHostESH_SL_iSO_fSS_fSU_ENKSV_clEvENKSW_clEmEUlmE0_EEfEET1_SH_dT_S12_T0_EUlmmE_EEEvS12_S12_S13_S11_"(ptr %12, ptr %1, ptr noundef %2, ptr %4)
  br label %16

16:                                               ; preds = %15, %14
  %17 = ptrtoint ptr %12 to i64
  %18 = sub i64 %6, %17
  %19 = ashr exact i64 %18, 3
  %20 = ptrtoint ptr %4 to i64
  tail call fastcc void @"_ZSt16__merge_adaptiveIN9__gnu_cxx17__normal_iteratorIPmSt6vectorImSaImEEEElS2_NS0_5__ops15_Iter_comp_iterIZN7xgboost6common16WeightedQuantileINSA_18IndexTransformIterIZZZNS9_3obj6detail18UpdateTreeLeafHostEPKNS9_7ContextERKS3_IiSaIiEEiRKNS9_8MetaInfoEfRKNS9_16HostDeviceVectorIfEEfPNS9_7RegTreeEENK3$_1clEvENKUlmE_clEmEUlmE_EENSC_IZZZNSE_18UpdateTreeLeafHostESH_SL_iSO_fSS_fSU_ENKSV_clEvENKSW_clEmEUlmE0_EEfEET1_SH_dT_S12_T0_EUlmmE_EEEvS12_S12_S12_S13_S13_S11_S13_T2_"(ptr %0, ptr %12, ptr %1, i64 noundef %11, i64 noundef %19, ptr noundef %2, i64 noundef %3, i64 %20)
  ret void
}